target datalayout = "e-m:e-p270:32:32-p271:32:32-p272:64:64-i64:64-i128:128-f80:128-n8:16:32:64-S128"
target triple = "x86_64-pc-linux-gnu"

@.str.8 = private unnamed_addr constant [4 x i8] c"err\00", align 1

; Function Attrs: nounwind uwtable
define internal i32 @luaRedisPcall(ptr noundef %0) #0 {
  %2 = alloca ptr, align 8
  %3 = alloca i32, align 4
  store ptr %0, ptr %2, align 8, !tbaa !5
  call void @llvm.lifetime.start.p0(i64 4, ptr %3) #12
  %4 = load ptr, ptr %2, align 8, !tbaa !5
  %5 = call i32 @lua_gettop(ptr noundef %4)
  store i32 %5, ptr %3, align 4, !tbaa !16
  %6 = load ptr, ptr %2, align 8, !tbaa !5
  call void @lua_pushboolean(ptr noundef %6, i32 noundef 1)
  %7 = load ptr, ptr %2, align 8, !tbaa !5
  call void @lua_insert(ptr noundef %7, i32 noundef 1)
  %8 = load ptr, ptr %2, align 8, !tbaa !5
  %9 = load i32, ptr %3, align 4, !tbaa !16
  %10 = sub nsw i32 %9, 1
  %11 = call i32 @lua_pcall(ptr noundef %8, i32 noundef %10, i32 noundef -1, i32 noundef 0)
  %12 = icmp ne i32 %11, 0
  br i1 %12, label %13, label %29

13:                                               ; preds = %1
  %14 = load ptr, ptr %2, align 8, !tbaa !5
  call void @lua_remove(ptr noundef %14, i32 noundef 1)
  %15 = load ptr, ptr %2, align 8, !tbaa !5
  %16 = call i32 @lua_type(ptr noundef %15, i32 noundef -1)
  %17 = icmp eq i32 %16, 5
  br i1 %17, label %18, label %26

18:                                               ; preds = %13
  %19 = load ptr, ptr %2, align 8, !tbaa !5
  call void @lua_getfield(ptr noundef %19, i32 noundef -1, ptr noundef @.str.8)
  %20 = load ptr, ptr %2, align 8, !tbaa !5
  %21 = call i32 @lua_isstring(ptr noundef %20, i32 noundef -1)
  %22 = icmp ne i32 %21, 0
  br i1 %22, label %23, label %25

23:                                               ; preds = %18
  %24 = load ptr, ptr %2, align 8, !tbaa !5
  call void @lua_replace(ptr noundef %24, i32 noundef -2)
  br label %25

25:                                               ; preds = %23, %18
  br label %26

26:                                               ; preds = %25, %13
  %27 = load ptr, ptr %2, align 8, !tbaa !5
  call void @lua_pushboolean(ptr noundef %27, i32 noundef 0)
  %28 = load ptr, ptr %2, align 8, !tbaa !5
  call void @lua_insert(ptr noundef %28, i32 noundef 1)
  br label %29

29:                                               ; preds = %26, %1
  %30 = load ptr, ptr %2, align 8, !tbaa !5
  %31 = call i32 @lua_gettop(ptr noundef %30)
  call void @llvm.lifetime.end.p0(i64 4, ptr %3) #12
  ret i32 %31
}