; Function Attrs: nounwind uwtable
define internal i32 @luaRedisPcall(ptr noundef %0) #0 {
  %2 = tail call i32 @lua_gettop(ptr noundef %0) #11
  tail call void @lua_pushboolean(ptr noundef %0, i32 noundef 1) #11
  tail call void @lua_insert(ptr noundef %0, i32 noundef 1) #11
  %3 = add nsw i32 %2, -1
  %4 = tail call i32 @lua_pcall(ptr noundef %0, i32 noundef %3, i32 noundef -1, i32 noundef 0) #11
  %.not = icmp eq i32 %4, 0
  br i1 %.not, label %12, label %5

5:                                                ; preds = %1
  tail call void @lua_remove(ptr noundef %0, i32 noundef 1) #11
  %6 = tail call i32 @lua_type(ptr noundef %0, i32 noundef -1) #11
  %7 = icmp eq i32 %6, 5
  br i1 %7, label %8, label %11

8:                                                ; preds = %5
  tail call void @lua_getfield(ptr noundef %0, i32 noundef -1, ptr noundef nonnull @.str.8) #11
  %9 = tail call i32 @lua_isstring(ptr noundef %0, i32 noundef -1) #11
  %.not12 = icmp eq i32 %9, 0
  br i1 %.not12, label %11, label %10

10:                                               ; preds = %8
  tail call void @lua_replace(ptr noundef %0, i32 noundef -2) #11
  br label %11

11:                                               ; preds = %8, %10, %5
  tail call void @lua_pushboolean(ptr noundef %0, i32 noundef 0) #11
  tail call void @lua_insert(ptr noundef %0, i32 noundef 1) #11
  br label %12

12:                                               ; preds = %11, %1
  %13 = tail call i32 @lua_gettop(ptr noundef %0) #11
  ret i32 %13
}